ccopy_reg
_reconstructor
p1
(cnltk.classify.decisiontree
DecisionTreeClassifier
p2
c__builtin__
object
p3
NtRp4
(dp5
S'_fname'
p6
(Vhe
p7
Vis
p8
tp9
sS'_label'
p10
Vpos
p11
sS'_decisions'
p12
(dp13
Ng1
(g2
g3
NtRp14
(dp15
g6
(Vis
p16
Vvery
p17
tp18
sg10
g11
sg12
(dp19
Ng1
(g2
g3
NtRp20
(dp21
g6
(Vin
p22
Vtheir
p23
tp24
sg10
g11
sg12
(dp25
Ng1
(g2
g3
NtRp26
(dp27
g6
(Vlife
p28
Vand
p29
tp30
sg10
g11
sg12
(dp31
Ng1
(g2
g3
NtRp32
(dp33
g6
(Vit
p34
Vdoes
p35
tp36
sg10
g11
sg12
(dp37
Ng1
(g2
g3
NtRp38
(dp39
g6
(Vportrayal
p40
Vof
p41
tp42
sg10
g11
sg12
(dp43
Ng1
(g2
g3
NtRp44
(dp45
g6
(Va
Vfun
p46
tp47
sg10
g11
sg12
(dp48
Ng1
(g2
g3
NtRp49
(dp50
g6
(Vfor
p51
Vall
p52
tp53
sg10
g11
sg12
(dp54
Ng1
(g2
g3
NtRp55
(dp56
g6
(Vthe
p57
Vsituation
p58
tp59
sg10
g11
sg12
(dp60
Ng1
(g2
g3
NtRp61
(dp62
g6
(Vthe
p63
Vimages
p64
tp65
sg10
g11
sg12
(dp66
Ng1
(g2
g3
NtRp67
(dp68
g6
(Vof
p69
Vdeath
p70
tp71
sg10
g11
sg12
(dp72
Ng1
(g2
g3
NtRp73
(dp74
g6
(Vbest
p75
Vfilms
p76
tp77
sg10
g11
sg12
(dp78
Ng1
(g2
g3
NtRp79
(dp80
g6
(Veverything
p81
Vfrom
p82
tp83
sg10
g11
sg12
(dp84
Ng1
(g2
g3
NtRp85
(dp86
g6
(Vof
p87
Vamerica
p88
tp89
sg10
g11
sg12
(dp90
Ng1
(g2
g3
NtRp91
(dp92
g6
(Van
p93
Vearly
p94
tp95
sg10
g11
sg12
(dp96
Ng1
(g2
g3
NtRp97
(dp98
g6
(Vstudy
p99
Vof
p100
tp101
sg10
g11
sg12
(dp102
Ng1
(g2
g3
NtRp103
(dp104
g6
(Vthe
p105
Vstoryline
p106
tp107
sg10
g11
sg12
(dp108
Ng1
(g2
g3
NtRp109
(dp110
g6
(Vother
p111
Vtwo
p112
tp113
sg10
g11
sg12
(dp114
Ng1
(g2
g3
NtRp115
(dp116
g6
(Vof
p117
Vfriends
p118
tp119
sg10
g11
sg12
(dp120
Ng1
(g2
g3
NtRp121
(dp122
g6
(Vfor
p123
Vboth
p124
tp125
sg10
g11
sg12
(dp126
Ng1
(g2
g3
NtRp127
(dp128
g6
(Vthe
Vitalian
p129
tp130
sg10
g11
sg12
(dp131
Ng1
(g2
g3
NtRp132
(dp133
g6
(Vthe
p134
Vsimilarities
p135
tp136
sg10
g11
sg12
(dp137
Ng1
(g2
g3
NtRp138
(dp139
g6
(Vexcellent
p140
Vas
p141
tp142
sg10
g11
sg12
(dp143
Ng1
(g2
g3
NtRp144
(dp145
g6
(Vmany
p146
Vother
p147
tp148
sg10
g11
sg12
(dp149
Ng1
(g2
g3
NtRp150
(dp151
g6
(V50
p152
Vyears
p153
tp154
sg10
g11
sg12
(dp155
Ng1
(g2
g3
NtRp156
(dp157
g6
(Vor
p158
Vbreak
p159
tp160
sg10
g11
sg12
(dp161
Ng1
(g2
g3
NtRp162
(dp163
g6
(Vpicture
p164
Vthe
p165
tp166
sg10
g11
sg12
(dp167
Ng1
(g2
g3
NtRp168
(dp169
g6
(Vtime
p170
Vat
p171
tp172
sg10
g11
sg12
(dp173
Ng1
(g2
g3
NtRp174
(dp175
g6
(Vfascinating
p176
Vand
p177
tp178
sg10
g11
sg12
(dp179
Ng1
(g2
g3
NtRp180
(dp181
g6
(Va
Vunique
p182
tp183
sg10
g11
sg12
(dp184
Ng1
(g2
g3
NtRp185
(dp186
g6
(Vna
p187
Vwen
p188
tp189
sg10
g11
sg12
(dp190
Ng1
(g2
g3
NtRp191
(dp192
g6
(Vhas
p193
Vfinally
p194
tp195
sg10
g11
sg12
(dp196
Ng1
(g2
g3
NtRp197
(dp198
g6
(Va
Vsoldier
p199
tp200
sg10
g11
sg12
(dp201
Ng1
(g2
g3
NtRp202
(dp203
g6
(Vbloody
p204
Vand
p205
tp206
sg10
g11
sg12
(dp207
Ng1
(g2
g3
NtRp208
(dp209
g6
(Vmen
p210
Vhave
p211
tp212
sg10
g11
sg12
(dp213
Ng1
(g2
g3
NtRp214
(dp215
g6
(Vbe
p216
Vprepared
p217
tp218
sg10
g11
sg12
(dp219
Ng1
(g2
g3
NtRp220
(dp221
g6
(Vseen
p222
Vby
p223
tp224
sg10
g11
sg12
(dp225
Ng1
(g2
g3
NtRp226
(dp227
g6
(Vbalance
p228
Vof
p229
tp230
sg10
g11
sg12
(dp231
Ng1
(g2
g3
NtRp232
(dp233
g6
(Vonly
p234
Vproblem
p235
tp236
sg10
g11
sg12
(dp237
Ng1
(g2
g3
NtRp238
(dp239
g6
(Vmany
p240
Vmovies
p241
tp242
sg10
g11
sg12
(dp243
Ng1
(g2
g3
NtRp244
(dp245
g6
(Vis
p246
Vhighly
p247
tp248
sg10
g11
sg12
(dp249
Ng1
(g2
g3
NtRp250
(dp251
g6
(Vmore
p252
Vabout
p253
tp254
sg10
g11
sg12
(dp255
Ng1
(g2
g3
NtRp256
(dp257
g6
(Vwide
p258
Vrange
p259
tp260
sg10
g11
sg12
(dp261
Ng1
(g2
g3
NtRp262
(dp263
g6
(Vby
p264
Veveryone
p265
tp266
sg10
g11
sg12
(dp267
Ng1
(g2
g3
NtRp268
(dp269
g6
(Valso
p270
Vquite
p271
tp272
sg10
g11
sg12
(dp273
Ng1
(g2
g3
NtRp274
(dp275
g6
(Vfamily
p276
Vwhile
p277
tp278
sg10
g11
sg12
(dp279
Ng1
(g2
g3
NtRp280
(dp281
g6
(Vmary
p282
Vs
tp283
sg10
g11
sg12
(dp284
Ng1
(g2
g3
NtRp285
(dp286
g6
(Vcompared
p287
Vwith
p288
tp289
sg10
g11
sg12
(dp290
Ng1
(g2
g3
NtRp291
(dp292
g6
(Vmost
p293
Ventertaining
p294
tp295
sg10
g11
sg12
(dp296
Ng1
(g2
g3
NtRp297
(dp298
g6
(Vlaughs
p299
Vthat
p300
tp301
sg10
g11
sg12
(dp302
Ng1
(g2
g3
NtRp303
(dp304
g6
(Vcrime
p305
Vstory
p306
tp307
sg10
g11
sg12
(dp308
Ng1
(g2
g3
NtRp309
(dp310
g6
(Vacting
p311
Vfrom
p312
tp313
sg10
g11
sg12
(dp314
Ng1
(g2
g3
NtRp315
(dp316
g6
(Vare
p317
Vfirst
p318
tp319
sg10
g11
sg12
(dp320
Ng1
(g2
g3
NtRp321
(dp322
g6
(Vnot
p323
Vdisappoint
p324
tp325
sg10
g11
sg12
(dp326
Ng1
(g2
g3
NtRp327
(dp328
g6
(Vfine
p329
Vfilm
p330
tp331
sg10
g11
sg12
(dp332
Ng1
(g2
g3
NtRp333
(dp334
g6
(Vand
p335
Vlight
p336
tp337
sg10
g11
sg12
(dp338
Ng1
(g2
g3
NtRp339
(dp340
g6
(Vand
p341
Vhead
p342
tp343
sg10
g11
sg12
(dp344
Ng1
(g2
g3
NtRp345
(dp346
g6
(Vhistory
p347
Vand
p348
tp349
sg10
g11
sg12
(dp350
Ng1
(g2
g3
NtRp351
(dp352
g6
(Vfun
p353
Vbegins
p354
tp355
sg10
g11
sg12
(dp356
Ng1
(g2
g3
NtRp357
(dp358
g6
(Vdespite
p359
Vthese
p360
tp361
sg10
g11
sg12
(dp362
Ng1
(g2
g3
NtRp363
(dp364
g6
(Vand
p365
Vcreative
p366
tp367
sg10
g11
sg12
(dp368
Ng1
(g2
g3
NtRp369
(dp370
g6
(Vtwo
p371
Vit
p372
tp373
sg10
g11
sg12
(dp374
Ng1
(g2
g3
NtRp375
(dp376
g6
(Vscenes
p377
Vis
p378
tp379
sg10
g11
sg12
(dp380
Ng1
(g2
g3
NtRp381
(dp382
g6
(Vhis
p383
Vfavorite
p384
tp385
sg10
g11
sg12
(dp386
Ng1
(g2
g3
NtRp387
(dp388
g6
(Vleading
p389
Vmen
p390
tp391
sg10
g11
sg12
(dp392
Ng1
(g2
g3
NtRp393
(dp394
g6
(Vkiller
p395
Vthat
p396
tp397
sg10
g11
sg12
(dp398
Ng1
(g2
g3
NtRp399
(dp400
g6
(Vduring
p401
Vworld
p402
tp403
sg10
g11
sg12
(dp404
Ng1
(g2
g3
NtRp405
(dp406
g6
(Vof
p407
Vmedia
p408
tp409
sg10
g11
sg12
(dp410
Ng1
(g2
g3
NtRp411
(dp412
g6
(Vas
p413
Vevil
p414
tp415
sg10
g11
sg12
(dp416
Ng1
(g2
g3
NtRp417
(dp418
g6
(Vyet
p419
Vseen
p420
tp421
sg10
g11
sg12
(dp422
Ng1
(g2
g3
NtRp423
(dp424
g6
(Vthan
p425
Vhalf
p426
tp427
sg10
g11
sg12
(dp428
Ng1
(g2
g3
NtRp429
(dp430
g6
(Vdelivers
p431
Vone
p432
tp433
sg10
g11
sg12
(dp434
Ng1
(g2
g3
NtRp435
(dp436
g6
(Vthough
p437
Vthis
p438
tp439
sg10
g11
sg12
(dp440
Ng1
(g2
g3
NtRp441
(dp442
g6
(Vcheck
p443
Vthis
p444
tp445
sg10
g11
sg12
(dp446
Ng1
(g2
g3
NtRp447
(dp448
g6
(Vmidnight
p449
Vin
p450
tp451
sg10
g11
sg12
(dp452
Ng1
(g2
g3
NtRp453
(dp454
g6
(Vwell
p455
Vcast
p456
tp457
sg10
g11
sg12
(dp458
Ng1
(g2
g3
NtRp459
(dp460
g6
(Va
Vsubtle
p461
tp462
sg10
g11
sg12
(dp463
Ng1
(g2
g3
NtRp464
(dp465
g6
(Vboy
p466
Vthat
p467
tp468
sg10
g11
sg12
(dp469
Ng1
(g2
g3
NtRp470
(dp471
g6
(Vjust
p472
Vright
p473
tp474
sg10
g11
sg12
(dp475
Ng1
(g2
g3
NtRp476
(dp477
g6
(Vthey
p478
Vexist
p479
tp480
sg10
g11
sg12
(dp481
Ng1
(g2
g3
NtRp482
(dp483
g6
(Vever
p484
Vpresent
p485
tp486
sg10
g11
sg12
(dp487
Ng1
(g2
g3
NtRp488
(dp489
g6
(Vthe
p490
Vdeadly
p491
tp492
sg10
g11
sg12
(dp493
Ng1
(g2
g3
NtRp494
(dp495
g6
(Vforced
p496
Vinto
p497
tp498
sg10
g11
sg12
(dp499
Ng1
(g2
g3
NtRp500
(dp501
g6
Nsg10
Vneg
p502
sg12
NsS'_default'
p503
NsbsI01
g1
(g2
g3
NtRp504
(dp505
g6
Nsg10
g11
sg12
Nsg503
Nsbssg503
NsbsI01
g1
(g2
g3
NtRp506
(dp507
g6
Nsg10
g11
sg12
Nsg503
Nsbssg503
NsbsI01
g1
(g2
g3
NtRp508
(dp509
g6
Nsg10
g11
sg12
Nsg503
Nsbssg503
NsbsI01
g1
(g2
g3
NtRp510
(dp511
g6
Nsg10
g11
sg12
Nsg503
Nsbssg503
NsbsI01
g1
(g2
g3
NtRp512
(dp513
g6
Nsg10
g11
sg12
Nsg503
Nsbssg503
NsbsI01
g1
(g2
g3
NtRp514
(dp515
g6
Nsg10
g11
sg12
Nsg503
Nsbssg503
NsbsI01
g1
(g2
g3
NtRp516
(dp517
g6
Nsg10
g11
sg12
Nsg503
Nsbssg503
NsbsI01
g1
(g2
g3
NtRp518
(dp519
g6
Nsg10
g11
sg12
Nsg503
Nsbssg503
NsbsI01
g1
(g2
g3
NtRp520
(dp521
g6
Nsg10
g11
sg12
Nsg503
Nsbssg503
NsbsI01
g1
(g2
g3
NtRp522
(dp523
g6
Nsg10
g11
sg12
Nsg503
Nsbssg503
NsbsI01
g1
(g2
g3
NtRp524
(dp525
g6
(Vis
p526
Vsolid
p527
tp528
sg10
g11
sg12
(dp529
I01
g1
(g2
g3
NtRp530
(dp531
g6
Nsg10
g502
sg12
Nsg503
NsbsNg1
(g2
g3
NtRp532
(dp533
g6
Nsg10
g11
sg12
Nsg503
Nsbssg503
Nsbssg503
NsbsI01
g1
(g2
g3
NtRp534
(dp535
g6
Nsg10
g11
sg12
Nsg503
Nsbssg503
NsbsI01
g1
(g2
g3
NtRp536
(dp537
g6
Nsg10
g11
sg12
Nsg503
Nsbssg503
NsbsI01
g1
(g2
g3
NtRp538
(dp539
g6
Nsg10
g11
sg12
Nsg503
Nsbssg503
NsbsI01
g1
(g2
g3
NtRp540
(dp541
g6
Nsg10
g11
sg12
Nsg503
Nsbssg503
NsbsI01
g1
(g2
g3
NtRp542
(dp543
g6
Nsg10
g11
sg12
Nsg503
Nsbssg503
NsbsI01
g1
(g2
g3
NtRp544
(dp545
g6
Nsg10
g11
sg12
Nsg503
Nsbssg503
NsbsI01
g1
(g2
g3
NtRp546
(dp547
g6
Nsg10
g11
sg12
Nsg503
Nsbssg503
NsbsI01
g1
(g2
g3
NtRp548
(dp549
g6
Nsg10
g11
sg12
Nsg503
Nsbssg503
NsbsI01
g1
(g2
g3
NtRp550
(dp551
g6
Nsg10
g11
sg12
Nsg503
Nsbssg503
NsbsI01
g1
(g2
g3
NtRp552
(dp553
g6
Nsg10
g11
sg12
Nsg503
Nsbssg503
NsbsI01
g1
(g2
g3
NtRp554
(dp555
g6
Nsg10
g11
sg12
Nsg503
Nsbssg503
NsbsI01
g1
(g2
g3
NtRp556
(dp557
g6
Nsg10
g11
sg12
Nsg503
Nsbssg503
NsbsI01
g1
(g2
g3
NtRp558
(dp559
g6
Nsg10
g11
sg12
Nsg503
Nsbssg503
NsbsI01
g1
(g2
g3
NtRp560
(dp561
g6
Nsg10
g11
sg12
Nsg503
Nsbssg503
NsbsI01
g1
(g2
g3
NtRp562
(dp563
g6
Nsg10
g11
sg12
Nsg503
Nsbssg503
NsbsI01
g1
(g2
g3
NtRp564
(dp565
g6
Nsg10
g11
sg12
Nsg503
Nsbssg503
NsbsI01
g1
(g2
g3
NtRp566
(dp567
g6
Nsg10
g11
sg12
Nsg503
Nsbssg503
NsbsI01
g1
(g2
g3
NtRp568
(dp569
g6
Nsg10
g11
sg12
Nsg503
Nsbssg503
NsbsI01
g1
(g2
g3
NtRp570
(dp571
g6
Nsg10
g11
sg12
Nsg503
Nsbssg503
NsbsI01
g1
(g2
g3
NtRp572
(dp573
g6
(Vgreat
p574
Vplot
p575
tp576
sg10
g11
sg12
(dp577
I01
g1
(g2
g3
NtRp578
(dp579
g6
Nsg10
g502
sg12
Nsg503
NsbsNg1
(g2
g3
NtRp580
(dp581
g6
Nsg10
g11
sg12
Nsg503
Nsbssg503
Nsbssg503
NsbsI01
g1
(g2
g3
NtRp582
(dp583
g6
Nsg10
g11
sg12
Nsg503
Nsbssg503
NsbsI01
g1
(g2
g3
NtRp584
(dp585
g6
Nsg10
g11
sg12
Nsg503
Nsbssg503
NsbsI01
g1
(g2
g3
NtRp586
(dp587
g6
Nsg10
g11
sg12
Nsg503
Nsbssg503
NsbsI01
g1
(g2
g3
NtRp588
(dp589
g6
Nsg10
g11
sg12
Nsg503
Nsbssg503
NsbsI01
g1
(g2
g3
NtRp590
(dp591
g6
Nsg10
g11
sg12
Nsg503
Nsbssg503
NsbsI01
g1
(g2
g3
NtRp592
(dp593
g6
Nsg10
g11
sg12
Nsg503
Nsbssg503
NsbsI01
g1
(g2
g3
NtRp594
(dp595
g6
Nsg10
g11
sg12
Nsg503
Nsbssg503
NsbsI01
g1
(g2
g3
NtRp596
(dp597
g6
Nsg10
g11
sg12
Nsg503
Nsbssg503
NsbsI01
g1
(g2
g3
NtRp598
(dp599
g6
Nsg10
g11
sg12
Nsg503
Nsbssg503
NsbsI01
g1
(g2
g3
NtRp600
(dp601
g6
Nsg10
g11
sg12
Nsg503
Nsbssg503
NsbsI01
g1
(g2
g3
NtRp602
(dp603
g6
Nsg10
g11
sg12
Nsg503
Nsbssg503
NsbsI01
g1
(g2
g3
NtRp604
(dp605
g6
(Vbe
p606
Vfound
p607
tp608
sg10
g11
sg12
(dp609
I01
g1
(g2
g3
NtRp610
(dp611
g6
Nsg10
g502
sg12
Nsg503
NsbsNg1
(g2
g3
NtRp612
(dp613
g6
Nsg10
g11
sg12
Nsg503
Nsbssg503
Nsbssg503
NsbsI01
g1
(g2
g3
NtRp614
(dp615
g6
Nsg10
g11
sg12
Nsg503
Nsbssg503
NsbsI01
g1
(g2
g3
NtRp616
(dp617
g6
(Vlittle
p618
Vto
p619
tp620
sg10
g11
sg12
(dp621
I01
g1
(g2
g3
NtRp622
(dp623
g6
Nsg10
g502
sg12
Nsg503
NsbsNg1
(g2
g3
NtRp624
(dp625
g6
Nsg10
g11
sg12
Nsg503
Nsbssg503
Nsbssg503
NsbsI01
g1
(g2
g3
NtRp626
(dp627
g6
(Vtend
p628
Vto
p629
tp630
sg10
g11
sg12
(dp631
I01
g1
(g2
g3
NtRp632
(dp633
g6
Nsg10
g502
sg12
Nsg503
NsbsNg1
(g2
g3
NtRp634
(dp635
g6
Nsg10
g11
sg12
Nsg503
Nsbssg503
Nsbssg503
NsbsI01
g1
(g2
g3
NtRp636
(dp637
g6
Nsg10
g11
sg12
Nsg503
Nsbssg503
NsbsI01
g1
(g2
g3
NtRp638
(dp639
g6
Nsg10
g11
sg12
Nsg503
Nsbssg503
NsbsI01
g1
(g2
g3
NtRp640
(dp641
g6
Nsg10
g11
sg12
Nsg503
Nsbssg503
NsbsI01
g1
(g2
g3
NtRp642
(dp643
g6
Nsg10
g11
sg12
Nsg503
Nsbssg503
NsbsI01
g1
(g2
g3
NtRp644
(dp645
g6
Nsg10
g11
sg12
Nsg503
Nsbssg503
NsbsI01
g1
(g2
g3
NtRp646
(dp647
g6
Nsg10
g11
sg12
Nsg503
Nsbssg503
NsbsI01
g1
(g2
g3
NtRp648
(dp649
g6
Nsg10
g11
sg12
Nsg503
Nsbssg503
NsbsI01
g1
(g2
g3
NtRp650
(dp651
g6
Nsg10
g11
sg12
Nsg503
Nsbssg503
NsbsI01
g1
(g2
g3
NtRp652
(dp653
g6
Nsg10
g11
sg12
Nsg503
Nsbssg503
NsbsI01
g1
(g2
g3
NtRp654
(dp655
g6
(Vwith
p656
Vher
p657
tp658
sg10
g11
sg12
(dp659
I01
g1
(g2
g3
NtRp660
(dp661
g6
Nsg10
g502
sg12
Nsg503
NsbsNg1
(g2
g3
NtRp662
(dp663
g6
Nsg10
g11
sg12
Nsg503
Nsbssg503
Nsbssg503
NsbsI01
g1
(g2
g3
NtRp664
(dp665
g6
(Vat
p666
Vall
p667
tp668
sg10
g11
sg12
(dp669
I01
g1
(g2
g3
NtRp670
(dp671
g6
Nsg10
g502
sg12
Nsg503
NsbsNg1
(g2
g3
NtRp672
(dp673
g6
Nsg10
g11
sg12
Nsg503
Nsbssg503
Nsbssg503
NsbsI01
g1
(g2
g3
NtRp674
(dp675
g6
Nsg10
g11
sg12
Nsg503
Nsbssg503
NsbsI01
g1
(g2
g3
NtRp676
(dp677
g6
Nsg10
g11
sg12
Nsg503
Nsbssg503
NsbsI01
g1
(g2
g3
NtRp678
(dp679
g6
(Vthe
p680
Vviewer
p681
tp682
sg10
g11
sg12
(dp683
I01
g1
(g2
g3
NtRp684
(dp685
g6
Nsg10
g502
sg12
Nsg503
NsbsNg1
(g2
g3
NtRp686
(dp687
g6
Nsg10
g11
sg12
Nsg503
Nsbssg503
Nsbssg503
NsbsI01
g1
(g2
g3
NtRp688
(dp689
g6
Nsg10
g11
sg12
Nsg503
Nsbssg503
NsbsI01
g1
(g2
g3
NtRp690
(dp691
g6
Nsg10
g11
sg12
Nsg503
Nsbssg503
NsbsI01
g1
(g2
g3
NtRp692
(dp693
g6
Nsg10
g11
sg12
Nsg503
Nsbssg503
NsbsI01
g1
(g2
g3
NtRp694
(dp695
g6
Nsg10
g11
sg12
Nsg503
Nsbssg503
NsbsI01
g1
(g2
g3
NtRp696
(dp697
g6
Nsg10
g11
sg12
Nsg503
Nsbssg503
NsbsI01
g1
(g2
g3
NtRp698
(dp699
g6
Nsg10
g11
sg12
Nsg503
Nsbssg503
NsbsI01
g1
(g2
g3
NtRp700
(dp701
g6
(Vi
Vsuppose
p702
tp703
sg10
g11
sg12
(dp704
I01
g1
(g2
g3
NtRp705
(dp706
g6
Nsg10
g502
sg12
Nsg503
NsbsNg1
(g2
g3
NtRp707
(dp708
g6
Nsg10
g11
sg12
Nsg503
Nsbssg503
Nsbssg503
NsbsI01
g1
(g2
g3
NtRp709
(dp710
g6
Nsg10
g11
sg12
Nsg503
Nsbssg503
NsbsI01
g1
(g2
g3
NtRp711
(dp712
g6
(Vscript
p713
Vand
p714
tp715
sg10
g11
sg12
(dp716
I01
g1
(g2
g3
NtRp717
(dp718
g6
Nsg10
g502
sg12
Nsg503
NsbsNg1
(g2
g3
NtRp719
(dp720
g6
Nsg10
g11
sg12
Nsg503
Nsbssg503
Nsbssg503
NsbsI01
g1
(g2
g3
NtRp721
(dp722
g6
(Vthe
p723
Vkid
p724
tp725
sg10
g11
sg12
(dp726
I01
g1
(g2
g3
NtRp727
(dp728
g6
Nsg10
g502
sg12
Nsg503
NsbsNg1
(g2
g3
NtRp729
(dp730
g6
Nsg10
g11
sg12
Nsg503
Nsbssg503
Nsbssg503
NsbsI01
g1
(g2
g3
NtRp731
(dp732
g6
Nsg10
g11
sg12
Nsg503
Nsbssg503
NsbsI01
g1
(g2
g3
NtRp733
(dp734
g6
(Vcould
p735
Vbe
p736
tp737
sg10
g11
sg12
(dp738
I01
g1
(g2
g3
NtRp739
(dp740
g6
Nsg10
g502
sg12
Nsg503
NsbsNg1
(g2
g3
NtRp741
(dp742
g6
Nsg10
g11
sg12
Nsg503
Nsbssg503
Nsbssg503
NsbsI01
g1
(g2
g3
NtRp743
(dp744
g6
(Vsure
p745
Vbut
p746
tp747
sg10
g11
sg12
(dp748
I01
g1
(g2
g3
NtRp749
(dp750
g6
Nsg10
g502
sg12
Nsg503
NsbsNg1
(g2
g3
NtRp751
(dp752
g6
Nsg10
g11
sg12
Nsg503
Nsbssg503
Nsbssg503
NsbsI01
g1
(g2
g3
NtRp753
(dp754
g6
Nsg10
g11
sg12
Nsg503
Nsbssg503
NsbsI01
g1
(g2
g3
NtRp755
(dp756
g6
(Vi
Vloved
p757
tp758
sg10
g11
sg12
(dp759
Ng1
(g2
g3
NtRp760
(dp761
g6
(Va
Vbunch
p762
tp763
sg10
g11
sg12
(dp764
I01
g1
(g2
g3
NtRp765
(dp766
g6
Nsg10
g502
sg12
Nsg503
NsbsNg1
(g2
g3
NtRp767
(dp768
g6
Nsg10
g11
sg12
Nsg503
Nsbssg503
NsbsI01
g1
(g2
g3
NtRp769
(dp770
g6
Nsg10
g502
sg12
Nsg503
Nsbssg503
Nsbssg503
NsbsI01
g1
(g2
g3
NtRp771
(dp772
g6
(Vthe
p773
Vfilm
p774
tp775
sg10
g11
sg12
(dp776
I01
g1
(g2
g3
NtRp777
(dp778
g6
(Vmaybe
p779
Vthe
p780
tp781
sg10
g11
sg12
(dp782
I01
g1
(g2
g3
NtRp783
(dp784
g6
Nsg10
g502
sg12
Nsg503
NsbsNg1
(g2
g3
NtRp785
(dp786
g6
(Vcome
p787
Vup
p788
tp789
sg10
g11
sg12
(dp790
I01
g1
(g2
g3
NtRp791
(dp792
g6
Nsg10
g502
sg12
Nsg503
NsbsNg1
(g2
g3
NtRp793
(dp794
g6
Nsg10
g11
sg12
Nsg503
Nsbssg503
Nsbssg503
NsbsNg1
(g2
g3
NtRp795
(dp796
g6
(Va
Vvery
p797
tp798
sg10
g11
sg12
(dp799
Ng1
(g2
g3
NtRp800
(dp801
g6
(V80
p802
Vs
tp803
sg10
g11
sg12
(dp804
Ng1
(g2
g3
NtRp805
(dp806
g6
(Vthe
p807
Vperfect
p808
tp809
sg10
g11
sg12
(dp810
Ng1
(g2
g3
NtRp811
(dp812
g6
Nsg10
g502
sg12
Nsg503
NsbsI01
g1
(g2
g3
NtRp813
(dp814
g6
Nsg10
g11
sg12
Nsg503
Nsbssg503
NsbsI01
g1
(g2
g3
NtRp815
(dp816
g6
Nsg10
g11
sg12
Nsg503
Nsbssg503
NsbsI01
g1
(g2
g3
NtRp817
(dp818
g6
Nsg10
g11
sg12
Nsg503
Nsbssg503
Nsbssg503
Nsbssg503
NsbsI01
g1
(g2
g3
NtRp819
(dp820
g6
(Vunfortunately
p821
Vthe
p822
tp823
sg10
g11
sg12
(dp824
Ng1
(g2
g3
NtRp825
(dp826
g6
(Vthriller
p827
Vof
p828
tp829
sg10
g11
sg12
(dp830
I01
g1
(g2
g3
NtRp831
(dp832
g6
Nsg10
g502
sg12
Nsg503
NsbsNg1
(g2
g3
NtRp833
(dp834
g6
Nsg10
g11
sg12
Nsg503
Nsbssg503
NsbsI01
g1
(g2
g3
NtRp835
(dp836
g6
Nsg10
g502
sg12
Nsg503
Nsbssg503
Nsbssg503
NsbsI01
g1
(g2
g3
NtRp837
(dp838
g6
(Vto
p839
Vhave
p840
tp841
sg10
g11
sg12
(dp842
I01
g1
(g2
g3
NtRp843
(dp844
g6
(Vhowever
p845
Vthe
p846
tp847
sg10
g11
sg12
(dp848
Ng1
(g2
g3
NtRp849
(dp850
g6
Nsg10
g502
sg12
Nsg503
NsbsI01
g1
(g2
g3
NtRp851
(dp852
g6
Nsg10
g11
sg12
Nsg503
Nsbssg503
NsbsNg1
(g2
g3
NtRp853
(dp854
g6
(Vand
p855
Van
p856
tp857
sg10
g11
sg12
(dp858
I01
g1
(g2
g3
NtRp859
(dp860
g6
Nsg10
g502
sg12
Nsg503
NsbsNg1
(g2
g3
NtRp861
(dp862
g6
Nsg10
g11
sg12
Nsg503
Nsbssg503
Nsbssg503
Nsbssg503
NsbsI01
g1
(g2
g3
NtRp863
(dp864
g6
(Vbut
p865
Vi
tp866
sg10
g11
sg12
(dp867
I01
g1
(g2
g3
NtRp868
(dp869
g6
(Vnot
p870
Vbe
p871
tp872
sg10
g11
sg12
(dp873
Ng1
(g2
g3
NtRp874
(dp875
g6
(Varquette
p876
Vand
p877
tp878
sg10
g11
sg12
(dp879
Ng1
(g2
g3
NtRp880
(dp881
g6
Nsg10
g502
sg12
Nsg503
NsbsI01
g1
(g2
g3
NtRp882
(dp883
g6
Nsg10
g11
sg12
Nsg503
Nsbssg503
NsbsI01
g1
(g2
g3
NtRp884
(dp885
g6
Nsg10
g11
sg12
Nsg503
Nsbssg503
NsbsNg1
(g2
g3
NtRp886
(dp887
g6
(Vof
p888
Vit
p889
tp890
sg10
g11
sg12
(dp891
I01
g1
(g2
g3
NtRp892
(dp893
g6
(Vand
p894
Valthough
p895
tp896
sg10
g11
sg12
(dp897
Ng1
(g2
g3
NtRp898
(dp899
g6
Nsg10
g502
sg12
Nsg503
NsbsI01
g1
(g2
g3
NtRp900
(dp901
g6
Nsg10
g11
sg12
Nsg503
Nsbssg503
NsbsNg1
(g2
g3
NtRp902
(dp903
g6
(Vto
p904
Vkill
p905
tp906
sg10
g11
sg12
(dp907
I01
g1
(g2
g3
NtRp908
(dp909
g6
(Vt
Vreally
p910
tp911
sg10
g11
sg12
(dp912
Ng1
(g2
g3
NtRp913
(dp914
g6
Nsg10
g502
sg12
Nsg503
NsbsI01
g1
(g2
g3
NtRp915
(dp916
g6
Nsg10
g11
sg12
Nsg503
Nsbssg503
NsbsNg1
(g2
g3
NtRp917
(dp918
g6
(Vportrayal
p919
Vof
p920
tp921
sg10
g11
sg12
(dp922
I01
g1
(g2
g3
NtRp923
(dp924
g6
Nsg10
g502
sg12
Nsg503
NsbsNg1
(g2
g3
NtRp925
(dp926
g6
(Vmovie
p927
Vlike
p928
tp929
sg10
g11
sg12
(dp930
I01
g1
(g2
g3
NtRp931
(dp932
g6
Nsg10
g502
sg12
Nsg503
NsbsNg1
(g2
g3
NtRp933
(dp934
g6
Nsg10
g11
sg12
Nsg503
Nsbssg503
Nsbssg503
Nsbssg503
Nsbssg503
Nsbssg503
Nsbssg503
NsbsI01
g1
(g2
g3
NtRp935
(dp936
g6
(Vshould
p937
Vhave
p938
tp939
sg10
g11
sg12
(dp940
Ng1
(g2
g3
NtRp941
(dp942
g6
(Va
Vcomedy
p943
tp944
sg10
g11
sg12
(dp945
I01
g1
(g2
g3
NtRp946
(dp947
g6
Nsg10
g502
sg12
Nsg503
NsbsNg1
(g2
g3
NtRp948
(dp949
g6
(Vthe
p950
Vfilmmakers
p951
tp952
sg10
g11
sg12
(dp953
Ng1
(g2
g3
NtRp954
(dp955
g6
(Vi
Vsaw
p956
tp957
sg10
g11
sg12
(dp958
I01
g1
(g2
g3
NtRp959
(dp960
g6
Nsg10
g502
sg12
Nsg503
NsbsNg1
(g2
g3
NtRp961
(dp962
g6
Nsg10
g11
sg12
Nsg503
Nsbssg503
NsbsI01
g1
(g2
g3
NtRp963
(dp964
g6
Nsg10
g502
sg12
Nsg503
Nsbssg503
Nsbssg503
NsbsI01
g1
(g2
g3
NtRp965
(dp966
g6
Nsg10
g502
sg12
Nsg503
Nsbssg503
Nsbssg503
NsbsI01
g1
(g2
g3
NtRp967
(dp968
g6
(Vabout
p969
Va
tp970
sg10
g11
sg12
(dp971
Ng1
(g2
g3
NtRp972
(dp973
g6
(Vas
p974
Vfor
p975
tp976
sg10
g11
sg12
(dp977
Ng1
(g2
g3
NtRp978
(dp979
g6
(Vi
Vthought
p980
tp981
sg10
g11
sg12
(dp982
Ng1
(g2
g3
NtRp983
(dp984
g6
(Vthe
p985
Valien
p986
tp987
sg10
g11
sg12
(dp988
Ng1
(g2
g3
NtRp989
(dp990
g6
(Vthe
p991
Vcore
p992
tp993
sg10
g11
sg12
(dp994
I01
g1
(g2
g3
NtRp995
(dp996
g6
Nsg10
g502
sg12
Nsg503
NsbsNg1
(g2
g3
NtRp997
(dp998
g6
(Vshe
p999
Vjust
p1000
tp1001
sg10
g11
sg12
(dp1002
Ng1
(g2
g3
NtRp1003
(dp1004
g6
(Vis
p1005
Vway
p1006
tp1007
sg10
g11
sg12
(dp1008
Ng1
(g2
g3
NtRp1009
(dp1010
g6
(Vcase
p1011
Vhere
p1012
tp1013
sg10
g11
sg12
(dp1014
I01
g1
(g2
g3
NtRp1015
(dp1016
g6
Nsg10
g502
sg12
Nsg503
NsbsNg1
(g2
g3
NtRp1017
(dp1018
g6
(Va
Vreally
p1019
tp1020
sg10
g11
sg12
(dp1021
Ng1
(g2
g3
NtRp1022
(dp1023
g6
(Vmr
p1024
Vbean
p1025
tp1026
sg10
g11
sg12
(dp1027
Ng1
(g2
g3
NtRp1028
(dp1029
g6
(Vgags
p1030
Vare
p1031
tp1032
sg10
g11
sg12
(dp1033
I01
g1
(g2
g3
NtRp1034
(dp1035
g6
Nsg10
g502
sg12
Nsg503
NsbsNg1
(g2
g3
NtRp1036
(dp1037
g6
Nsg10
g11
sg12
Nsg503
Nsbssg503
NsbsI01
g1
(g2
g3
NtRp1038
(dp1039
g6
Nsg10
g502
sg12
Nsg503
Nsbssg503
NsbsI01
g1
(g2
g3
NtRp1040
(dp1041
g6
Nsg10
g502
sg12
Nsg503
Nsbssg503
Nsbssg503
NsbsI01
g1
(g2
g3
NtRp1042
(dp1043
g6
Nsg10
g502
sg12
Nsg503
Nsbssg503
NsbsI01
g1
(g2
g3
NtRp1044
(dp1045
g6
Nsg10
g502
sg12
Nsg503
Nsbssg503
Nsbssg503
NsbsI01
g1
(g2
g3
NtRp1046
(dp1047
g6
Nsg10
g502
sg12
Nsg503
Nsbssg503
NsbsI01
g1
(g2
g3
NtRp1048
(dp1049
g6
Nsg10
g502
sg12
Nsg503
Nsbssg503
NsbsI01
g1
(g2
g3
NtRp1050
(dp1051
g6
(Vthe
p1052
Vviewer
p1053
tp1054
sg10
g11
sg12
(dp1055
Ng1
(g2
g3
NtRp1056
(dp1057
g6
Nsg10
g502
sg12
Nsg503
NsbsI01
g1
(g2
g3
NtRp1058
(dp1059
g6
Nsg10
g11
sg12
Nsg503
Nsbssg503
Nsbssg503
NsbsI01
g1
(g2
g3
NtRp1060
(dp1061
g6
(Vmanages
p1062
Vto
p1063
tp1064
sg10
g11
sg12
(dp1065
Ng1
(g2
g3
NtRp1066
(dp1067
g6
(Vends
p1068
Vup
p1069
tp1070
sg10
g11
sg12
(dp1071
Ng1
(g2
g3
NtRp1072
(dp1073
g6
Nsg10
g502
sg12
Nsg503
NsbsI01
g1
(g2
g3
NtRp1074
(dp1075
g6
Nsg10
g11
sg12
Nsg503
Nsbssg503
NsbsI01
g1
(g2
g3
NtRp1076
(dp1077
g6
Nsg10
g11
sg12
Nsg503
Nsbssg503
Nsbssg503
Nsbssg503
NsbsI01
g1
(g2
g3
NtRp1078
(dp1079
g6
(Vobvious
p1080
Vthat
p1081
tp1082
sg10
g11
sg12
(dp1083
Ng1
(g2
g3
NtRp1084
(dp1085
g6
(Vwaste
p1086
Vof
p1087
tp1088
sg10
g11
sg12
(dp1089
Ng1
(g2
g3
NtRp1090
(dp1091
g6
(Vto
p1092
Vhave
p1093
tp1094
sg10
g11
sg12
(dp1095
Ng1
(g2
g3
NtRp1096
(dp1097
g6
(Velse
p1098
Vto
p1099
tp1100
sg10
g11
sg12
(dp1101
Ng1
(g2
g3
NtRp1102
(dp1103
g6
(Vto
p1104
Vhide
p1105
tp1106
sg10
g11
sg12
(dp1107
Ng1
(g2
g3
NtRp1108
(dp1109
g6
(Vhas
p1110
Vfinally
p1111
tp1112
sg10
g11
sg12
(dp1113
I01
g1
(g2
g3
NtRp1114
(dp1115
g6
Nsg10
g502
sg12
Nsg503
NsbsNg1
(g2
g3
NtRp1116
(dp1117
g6
(Vgilliam
p1118
Vhas
p1119
tp1120
sg10
g11
sg12
(dp1121
I01
g1
(g2
g3
NtRp1122
(dp1123
g6
Nsg10
g502
sg12
Nsg503
NsbsNg1
(g2
g3
NtRp1124
(dp1125
g6
(Va
Vcliched
p1126
tp1127
sg10
g11
sg12
(dp1128
I01
g1
(g2
g3
NtRp1129
(dp1130
g6
Nsg10
g502
sg12
Nsg503
NsbsNg1
(g2
g3
NtRp1131
(dp1132
g6
Nsg10
g11
sg12
Nsg503
Nsbssg503
Nsbssg503
Nsbssg503
NsbsI01
g1
(g2
g3
NtRp1133
(dp1134
g6
Nsg10
g502
sg12
Nsg503
Nsbssg503
NsbsI01
g1
(g2
g3
NtRp1135
(dp1136
g6
Nsg10
g502
sg12
Nsg503
Nsbssg503
NsbsI01
g1
(g2
g3
NtRp1137
(dp1138
g6
(Vthrough
p1139
Vthe
p1140
tp1141
sg10
g11
sg12
(dp1142
Ng1
(g2
g3
NtRp1143
(dp1144
g6
(V20
p1145
V000
p1146
tp1147
sg10
g11
sg12
(dp1148
Ng1
(g2
g3
NtRp1149
(dp1150
g6
Nsg10
g502
sg12
Nsg503
NsbsI01
g1
(g2
g3
NtRp1151
(dp1152
g6
Nsg10
g11
sg12
Nsg503
Nsbssg503
NsbsI01
g1
(g2
g3
NtRp1153
(dp1154
g6
(Va
Vbottle
p1155
tp1156
sg10
g11
sg12
(dp1157
I01
g1
(g2
g3
NtRp1158
(dp1159
g6
Nsg10
g502
sg12
Nsg503
NsbsNg1
(g2
g3
NtRp1160
(dp1161
g6
Nsg10
g11
sg12
Nsg503
Nsbssg503
Nsbssg503
Nsbssg503
NsbsI01
g1
(g2
g3
NtRp1162
(dp1163
g6
Nsg10
g502
sg12
Nsg503
Nsbssg503
NsbsI01
g1
(g2
g3
NtRp1164
(dp1165
g6
Nsg10
g502
sg12
Nsg503
Nsbssg503
Nsbssg503
NsbsI01
g1
(g2
g3
NtRp1166
(dp1167
g6
(Vthe
p1168
Vworst
p1169
tp1170
sg10
g11
sg12
(dp1171
Ng1
(g2
g3
NtRp1172
(dp1173
g6
(Vwhen
p1174
Va
tp1175
sg10
g11
sg12
(dp1176
Ng1
(g2
g3
NtRp1177
(dp1178
g6
(Vlive
p1179
Vaction
p1180
tp1181
sg10
g11
sg12
(dp1182
Ng1
(g2
g3
NtRp1183
(dp1184
g6
(Vnot
p1185
Vmuch
p1186
tp1187
sg10
g11
sg12
(dp1188
Ng1
(g2
g3
NtRp1189
(dp1190
g6
(Vmovie
p1191
Vi
tp1192
sg10
g11
sg12
(dp1193
I01
g1
(g2
g3
NtRp1194
(dp1195
g6
(Vand
p1196
Vis
p1197
tp1198
sg10
g11
sg12
(dp1199
Ng1
(g2
g3
NtRp1200
(dp1201
g6
(Vwell
p1202
Vin
p1203
tp1204
sg10
g11
sg12
(dp1205
Ng1
(g2
g3
NtRp1206
(dp1207
g6
Nsg10
g502
sg12
Nsg503
NsbsI01
g1
(g2
g3
NtRp1208
(dp1209
g6
Nsg10
g11
sg12
Nsg503
Nsbssg503
NsbsI01
g1
(g2
g3
NtRp1210
(dp1211
g6
Nsg10
g11
sg12
Nsg503
Nsbssg503
NsbsNg1
(g2
g3
NtRp1212
(dp1213
g6
(Vthe
p1214
Vmaking
p1215
tp1216
sg10
g11
sg12
(dp1217
Ng1
(g2
g3
NtRp1218
(dp1219
g6
(V4
Von
p1220
tp1221
sg10
g11
sg12
(dp1222
Ng1
(g2
g3
NtRp1223
(dp1224
g6
(Vtoo
p1225
Vbad
p1226
tp1227
sg10
g11
sg12
(dp1228
Ng1
(g2
g3
NtRp1229
(dp1230
g6
(Vso
p1231
Vbad
p1232
tp1233
sg10
g11
sg12
(dp1234
Ng1
(g2
g3
NtRp1235
(dp1236
g6
(Va
Vpointless
p1237
tp1238
sg10
g11
sg12
(dp1239
I01
g1
(g2
g3
NtRp1240
(dp1241
g6
Nsg10
g502
sg12
Nsg503
NsbsNg1
(g2
g3
NtRp1242
(dp1243
g6
(Vromance
p1244
Vbetween
p1245
tp1246
sg10
g11
sg12
(dp1247
Ng1
(g2
g3
NtRp1248
(dp1249
g6
(Vmade
p1250
Vto
p1251
tp1252
sg10
g11
sg12
(dp1253
Ng1
(g2
g3
NtRp1254
(dp1255
g6
(Vthe
p1256
Vdifficulty
p1257
tp1258
sg10
g11
sg12
(dp1259
Ng1
(g2
g3
NtRp1260
(dp1261
g6
(Vflat
p1262
Von
p1263
tp1264
sg10
g11
sg12
(dp1265
Ng1
(g2
g3
NtRp1266
(dp1267
g6
(Vthe
p1268
Vpredictable
p1269
tp1270
sg10
g11
sg12
(dp1271
Ng1
(g2
g3
NtRp1272
(dp1273
g6
(Vs
Vas
p1274
tp1275
sg10
g11
sg12
(dp1276
I01
g1
(g2
g3
NtRp1277
(dp1278
g6
(Vscary
p1279
Vand
p1280
tp1281
sg10
g11
sg12
(dp1282
Ng1
(g2
g3
NtRp1283
(dp1284
g6
Nsg10
g502
sg12
Nsg503
NsbsI01
g1
(g2
g3
NtRp1285
(dp1286
g6
Nsg10
g11
sg12
Nsg503
Nsbssg503
NsbsNg1
(g2
g3
NtRp1287
(dp1288
g6
(Vhas
p1289
Vnothing
p1290
tp1291
sg10
g11
sg12
(dp1292
Ng1
(g2
g3
NtRp1293
(dp1294
g6
(Vd
Vhave
p1295
tp1296
sg10
g11
sg12
(dp1297
Ng1
(g2
g3
NtRp1298
(dp1299
g6
(Vbe
p1300
Vabout
p1301
tp1302
sg10
g11
sg12
(dp1303
Ng1
(g2
g3
NtRp1304
(dp1305
g6
(Vby
p1306
Vgiving
p1307
tp1308
sg10
g11
sg12
(dp1309
Ng1
(g2
g3
NtRp1310
(dp1311
g6
(Vmore
p1312
Vappropriate
p1313
tp1314
sg10
g11
sg12
(dp1315
Ng1
(g2
g3
NtRp1316
(dp1317
g6
(Vi
Vsat
p1318
tp1319
sg10
g11
sg12
(dp1320
Ng1
(g2
g3
NtRp1321
(dp1322
g6
(Vsound
p1323
Vgood
p1324
tp1325
sg10
g11
sg12
(dp1326
Ng1
(g2
g3
NtRp1327
(dp1328
g6
(Vand
p1329
Vlook
p1330
tp1331
sg10
g11
sg12
(dp1332
Ng1
(g2
g3
NtRp1333
(dp1334
g6
(Vdull
p1335
Vand
p1336
tp1337
sg10
g11
sg12
(dp1338
I01
g1
(g2
g3
NtRp1339
(dp1340
g6
Nsg10
g502
sg12
Nsg503
NsbsNg1
(g2
g3
NtRp1341
(dp1342
g6
(Vgood
p1343
Vwork
p1344
tp1345
sg10
g11
sg12
(dp1346
Ng1
(g2
g3
NtRp1347
(dp1348
g6
(Vthe
p1349
Vvampires
p1350
tp1351
sg10
g11
sg12
(dp1352
Ng1
(g2
g3
NtRp1353
(dp1354
g6
(Vand
p1355
Vbadly
p1356
tp1357
sg10
g11
sg12
(dp1358
Ng1
(g2
g3
NtRp1359
(dp1360
g6
(Vbetter
p1361
Vif
p1362
tp1363
sg10
g11
sg12
(dp1364
Ng1
(g2
g3
NtRp1365
(dp1366
g6
(Vare
p1367
Vare
p1368
tp1369
sg10
g11
sg12
(dp1370
Ng1
(g2
g3
NtRp1371
(dp1372
g6
(Vasking
p1373
Vyourself
p1374
tp1375
sg10
g11
sg12
(dp1376
Ng1
(g2
g3
NtRp1377
(dp1378
g6
(Vfather
p1379
Vjohn
p1380
tp1381
sg10
g11
sg12
(dp1382
I01
g1
(g2
g3
NtRp1383
(dp1384
g6
Nsg10
g502
sg12
Nsg503
NsbsNg1
(g2
g3
NtRp1385
(dp1386
g6
(Vsex
p1387
Vcrazed
p1388
tp1389
sg10
g11
sg12
(dp1390
Ng1
(g2
g3
NtRp1391
(dp1392
g6
(Vand
p1393
Vsubsequently
p1394
tp1395
sg10
g11
sg12
(dp1396
I01
g1
(g2
g3
NtRp1397
(dp1398
g6
Nsg10
g502
sg12
Nsg503
NsbsNg1
(g2
g3
NtRp1399
(dp1400
g6
Nsg10
g11
sg12
Nsg503
Nsbssg503
NsbsI01
g1
(g2
g3
NtRp1401
(dp1402
g6
Nsg10
g502
sg12
Nsg503
Nsbssg503
Nsbssg503
NsbsI01
g1
(g2
g3
NtRp1403
(dp1404
g6
Nsg10
g502
sg12
Nsg503
Nsbssg503
NsbsI01
g1
(g2
g3
NtRp1405
(dp1406
g6
Nsg10
g502
sg12
Nsg503
Nsbssg503
NsbsI01
g1
(g2
g3
NtRp1407
(dp1408
g6
Nsg10
g502
sg12
Nsg503
Nsbssg503
NsbsI01
g1
(g2
g3
NtRp1409
(dp1410
g6
Nsg10
g502
sg12
Nsg503
Nsbssg503
NsbsI01
g1
(g2
g3
NtRp1411
(dp1412
g6
Nsg10
g502
sg12
Nsg503
Nsbssg503
NsbsI01
g1
(g2
g3
NtRp1413
(dp1414
g6
Nsg10
g502
sg12
Nsg503
Nsbssg503
Nsbssg503
NsbsI01
g1
(g2
g3
NtRp1415
(dp1416
g6
Nsg10
g502
sg12
Nsg503
Nsbssg503
NsbsI01
g1
(g2
g3
NtRp1417
(dp1418
g6
Nsg10
g502
sg12
Nsg503
Nsbssg503
NsbsI01
g1
(g2
g3
NtRp1419
(dp1420
g6
Nsg10
g502
sg12
Nsg503
Nsbssg503
NsbsI01
g1
(g2
g3
NtRp1421
(dp1422
g6
Nsg10
g502
sg12
Nsg503
Nsbssg503
NsbsI01
g1
(g2
g3
NtRp1423
(dp1424
g6
(Vfor
p1425
Vmany
p1426
tp1427
sg10
g11
sg12
(dp1428
Ng1
(g2
g3
NtRp1429
(dp1430
g6
Nsg10
g502
sg12
Nsg503
NsbsI01
g1
(g2
g3
NtRp1431
(dp1432
g6
Nsg10
g11
sg12
Nsg503
Nsbssg503
Nsbssg503
NsbsI01
g1
(g2
g3
NtRp1433
(dp1434
g6
Nsg10
g502
sg12
Nsg503
Nsbssg503
NsbsI01
g1
(g2
g3
NtRp1435
(dp1436
g6
Nsg10
g502
sg12
Nsg503
Nsbssg503
NsbsI01
g1
(g2
g3
NtRp1437
(dp1438
g6
Nsg10
g502
sg12
Nsg503
Nsbssg503
Nsbssg503
NsbsI01
g1
(g2
g3
NtRp1439
(dp1440
g6
Nsg10
g502
sg12
Nsg503
Nsbssg503
NsbsI01
g1
(g2
g3
NtRp1441
(dp1442
g6
Nsg10
g502
sg12
Nsg503
Nsbssg503
NsbsI01
g1
(g2
g3
NtRp1443
(dp1444
g6
Nsg10
g502
sg12
Nsg503
Nsbssg503
NsbsI01
g1
(g2
g3
NtRp1445
(dp1446
g6
(Vyou
p1447
Vtoo
p1448
tp1449
sg10
g11
sg12
(dp1450
Ng1
(g2
g3
NtRp1451
(dp1452
g6
Nsg10
g502
sg12
Nsg503
NsbsI01
g1
(g2
g3
NtRp1453
(dp1454
g6
Nsg10
g11
sg12
Nsg503
Nsbssg503
Nsbssg503
NsbsI01
g1
(g2
g3
NtRp1455
(dp1456
g6
Nsg10
g502
sg12
Nsg503
Nsbssg503
Nsbssg503
NsbsI01
g1
(g2
g3
NtRp1457
(dp1458
g6
(Vshe
p1459
Vis
p1460
tp1461
sg10
g11
sg12
(dp1462
Ng1
(g2
g3
NtRp1463
(dp1464
g6
Nsg10
g502
sg12
Nsg503
NsbsI01
g1
(g2
g3
NtRp1465
(dp1466
g6
Nsg10
g11
sg12
Nsg503
Nsbssg503
Nsbssg503
NsbsI01
g1
(g2
g3
NtRp1467
(dp1468
g6
(Vfor
p1469
Va
tp1470
sg10
g11
sg12
(dp1471
Ng1
(g2
g3
NtRp1472
(dp1473
g6
Nsg10
g502
sg12
Nsg503
NsbsI01
g1
(g2
g3
NtRp1474
(dp1475
g6
Nsg10
g11
sg12
Nsg503
Nsbssg503
Nsbssg503
NsbsI01
g1
(g2
g3
NtRp1476
(dp1477
g6
Nsg10
g502
sg12
Nsg503
Nsbssg503
NsbsI01
g1
(g2
g3
NtRp1478
(dp1479
g6
(Va
Vbottle
p1480
tp1481
sg10
g11
sg12
(dp1482
Ng1
(g2
g3
NtRp1483
(dp1484
g6
Nsg10
g502
sg12
Nsg503
NsbsI01
g1
(g2
g3
NtRp1485
(dp1486
g6
Nsg10
g11
sg12
Nsg503
Nsbssg503
Nsbssg503
Nsbssg503
NsbsI01
g1
(g2
g3
NtRp1487
(dp1488
g6
(Vthen
p1489
Vthe
p1490
tp1491
sg10
g11
sg12
(dp1492
Ng1
(g2
g3
NtRp1493
(dp1494
g6
(Vwant
p1495
Vto
p1496
tp1497
sg10
g11
sg12
(dp1498
Ng1
(g2
g3
NtRp1499
(dp1500
g6
(Vstill
p1501
Va
tp1502
sg10
g11
sg12
(dp1503
Ng1
(g2
g3
NtRp1504
(dp1505
g6
Nsg10
g502
sg12
Nsg503
NsbsI01
g1
(g2
g3
NtRp1506
(dp1507
g6
Nsg10
g11
sg12
Nsg503
Nsbssg503
NsbsI01
g1
(g2
g3
NtRp1508
(dp1509
g6
Nsg10
g11
sg12
Nsg503
Nsbssg503
NsbsI01
g1
(g2
g3
NtRp1510
(dp1511
g6
Nsg10
g11
sg12
Nsg503
Nsbssg503
Nsbssg503
NsbsI01
g1
(g2
g3
NtRp1512
(dp1513
g6
Nsg10
g502
sg12
Nsg503
Nsbssg503
NsbsI01
g1
(g2
g3
NtRp1514
(dp1515
g6
(Vfilm
p1516
Vand
p1517
tp1518
sg10
g11
sg12
(dp1519
Ng1
(g2
g3
NtRp1520
(dp1521
g6
(Vthe
p1522
Vlife
p1523
tp1524
sg10
g11
sg12
(dp1525
Ng1
(g2
g3
NtRp1526
(dp1527
g6
(Vheart
p1528
Vand
p1529
tp1530
sg10
g11
sg12
(dp1531
Ng1
(g2
g3
NtRp1532
(dp1533
g6
(Vt
Vone
p1534
tp1535
sg10
g11
sg12
(dp1536
Ng1
(g2
g3
NtRp1537
(dp1538
g6
Nsg10
g502
sg12
Nsg503
NsbsI01
g1
(g2
g3
NtRp1539
(dp1540
g6
Nsg10
g11
sg12
Nsg503
Nsbssg503
NsbsI01
g1
(g2
g3
NtRp1541
(dp1542
g6
Nsg10
g11
sg12
Nsg503
Nsbssg503
NsbsI01
g1
(g2
g3
NtRp1543
(dp1544
g6
Nsg10
g11
sg12
Nsg503
Nsbssg503
NsbsI01
g1
(g2
g3
NtRp1545
(dp1546
g6
(Vsuspense
p1547
Vthe
p1548
tp1549
sg10
g11
sg12
(dp1550
I01
g1
(g2
g3
NtRp1551
(dp1552
g6
Nsg10
g502
sg12
Nsg503
NsbsNg1
(g2
g3
NtRp1553
(dp1554
g6
Nsg10
g11
sg12
Nsg503
Nsbssg503
Nsbssg503
Nsbssg503
NsbsI01
g1
(g2
g3
NtRp1555
(dp1556
g6
(Vthan
p1557
Vany
p1558
tp1559
sg10
g11
sg12
(dp1560
Ng1
(g2
g3
NtRp1561
(dp1562
g6
(Vbut
p1563
Vall
p1564
tp1565
sg10
g11
sg12
(dp1566
Ng1
(g2
g3
NtRp1567
(dp1568
g6
(Vthose
p1569
Vmovies
p1570
tp1571
sg10
g11
sg12
(dp1572
Ng1
(g2
g3
NtRp1573
(dp1574
g6
(Vpicture
p1575
Vas
p1576
tp1577
sg10
g11
sg12
(dp1578
Ng1
(g2
g3
NtRp1579
(dp1580
g6
(Videntify
p1581
Vwith
p1582
tp1583
sg10
g11
sg12
(dp1584
Ng1
(g2
g3
NtRp1585
(dp1586
g6
(Vinteresting
p1587
Vpremise
p1588
tp1589
sg10
g11
sg12
(dp1590
Ng1
(g2
g3
NtRp1591
(dp1592
g6
Nsg10
g502
sg12
Nsg503
NsbsI01
g1
(g2
g3
NtRp1593
(dp1594
g6
Nsg10
g11
sg12
Nsg503
Nsbssg503
NsbsI01
g1
(g2
g3
NtRp1595
(dp1596
g6
Nsg10
g11
sg12
Nsg503
Nsbssg503
NsbsI01
g1
(g2
g3
NtRp1597
(dp1598
g6
Nsg10
g11
sg12
Nsg503
Nsbssg503
NsbsI01
g1
(g2
g3
NtRp1599
(dp1600
g6
Nsg10
g11
sg12
Nsg503
Nsbssg503
NsbsI01
g1
(g2
g3
NtRp1601
(dp1602
g6
Nsg10
g11
sg12
Nsg503
Nsbssg503
NsbsI01
g1
(g2
g3
NtRp1603
(dp1604
g6
Nsg10
g11
sg12
Nsg503
Nsbssg503
Nsbssg503
Nsbssg503
Nsb.